target datalayout = "e-m:e-p270:32:32-p271:32:32-p272:64:64-i64:64-i128:128-f80:128-n8:16:32:64-S128"
target triple = "x86_64-pc-linux-gnu"

@proto_register_st2110_20.ett = internal global [2 x ptr] [ptr @ett_st2110_20, ptr @ett_st2110_20_srd_row], align 16
@.str.22 = private unnamed_addr constant [44 x i8] c"SMPTE ST2110-20 (Uncompressed Active Video)\00", align 1
@.str.23 = private unnamed_addr constant [10 x i8] c"ST2110-20\00", align 1
@.str.24 = private unnamed_addr constant [10 x i8] c"st2110_20\00", align 1
@proto_st2110_20 = internal global i32 0, align 4
@.str.25 = private unnamed_addr constant [21 x i8] c"dynamic.payload.type\00", align 1
@st2110_20_handle = internal global ptr null, align 8

; Function Attrs: null_pointer_is_valid sspstrong uwtable
define hidden void @proto_register_st2110_20() #0 {
  %1 = alloca ptr, align 8
  call void @llvm.lifetime.start.p0(i64 8, ptr %1) #5
  %2 = call i32 @proto_register_protocol(ptr noundef @.str.22, ptr noundef @.str.23, ptr noundef @.str.24)
  store i32 %2, ptr @proto_st2110_20, align 4
  %3 = load i32, ptr @proto_st2110_20, align 4
  call void @proto_register_field_array(i32 noundef %3, ptr noundef @proto_register_st2110_20.hf, i32 noundef 11)
  call void @proto_register_subtree_array(ptr noundef @proto_register_st2110_20.ett, i32 noundef 2)
  %4 = load i32, ptr @proto_st2110_20, align 4
  %5 = call ptr @prefs_register_protocol(i32 noundef %4, ptr noundef null)
  store ptr %5, ptr %1, align 8
  %6 = load ptr, ptr %1, align 8
  call void @prefs_register_obsolete_preference(ptr noundef %6, ptr noundef @.str.25)
  %7 = load i32, ptr @proto_st2110_20, align 4
  %8 = call ptr @register_dissector(ptr noundef @.str.24, ptr noundef @dissect_st2110_20, i32 noundef %7)
  store ptr %8, ptr @st2110_20_handle, align 8
  call void @llvm.lifetime.end.p0(i64 8, ptr %1) #5
  ret void
}