; Function Attrs: null_pointer_is_valid sspstrong uwtable
define hidden void @proto_register_st2110_20() local_unnamed_addr #0 {
  %1 = tail call i32 @proto_register_protocol(ptr noundef nonnull @.str.22, ptr noundef nonnull @.str.23, ptr noundef nonnull @.str.24)
  store i32 %1, ptr @proto_st2110_20, align 4
  tail call void @proto_register_field_array(i32 noundef %1, ptr noundef nonnull @proto_register_st2110_20.hf, i32 noundef 11)
  tail call void @proto_register_subtree_array(ptr noundef nonnull @proto_register_st2110_20.ett, i32 noundef 2)
  %2 = load i32, ptr @proto_st2110_20, align 4
  %3 = tail call ptr @prefs_register_protocol(i32 noundef %2, ptr noundef null)
  tail call void @prefs_register_obsolete_preference(ptr noundef %3, ptr noundef nonnull @.str.25)
  %4 = load i32, ptr @proto_st2110_20, align 4
  %5 = tail call ptr @register_dissector(ptr noundef nonnull @.str.24, ptr noundef nonnull @dissect_st2110_20, i32 noundef %4)
  store ptr %5, ptr @st2110_20_handle, align 8
  ret void
}